target datalayout = "e-m:e-p270:32:32-p271:32:32-p272:64:64-i64:64-i128:128-f80:128-n8:16:32:64-S128"
target triple = "x86_64-pc-linux-gnu"

%struct.Abc_Ntk_t_ = type { i32, i32, ptr, ptr, ptr, ptr, ptr, ptr, ptr, ptr, ptr, ptr, ptr, [11 x i32], i32, i32, i32, i32, ptr, i32, ptr, ptr, i32, i32, i32, double, i32, %struct.Vec_Int_t_, ptr, ptr, ptr, ptr, ptr, float, i32, ptr, ptr, ptr, ptr, ptr, ptr, ptr, ptr, ptr, ptr, ptr, ptr, ptr, ptr, ptr, ptr, ptr, ptr, ptr, ptr, ptr }
%struct.Vec_Int_t_ = type { i32, i32, ptr }
%struct.Abc_Obj_t_ = type { ptr, ptr, i32, i32, %struct.Vec_Int_t_, %struct.Vec_Int_t_, %union.anon, %union.anon.0 }
%union.anon = type { ptr }
%union.anon.0 = type { ptr }
%struct.Vec_Ptr_t_ = type { i32, i32, ptr }

@.str.4 = private unnamed_addr constant [49 x i8] c"Cannot find the end of hexadecimal truth table.\0A\00", align 1

; Function Attrs: nounwind uwtable
define internal ptr @Vec_PtrEntry(ptr noundef %0, i32 noundef %1) #0 {
  %3 = alloca ptr, align 8
  %4 = alloca i32, align 4
  store ptr %0, ptr %3, align 8
  store i32 %1, ptr %4, align 4
  %5 = load ptr, ptr %3, align 8
  %6 = getelementptr inbounds %struct.Vec_Ptr_t_, ptr %5, i32 0, i32 2
  %7 = load ptr, ptr %6, align 8
  %8 = load i32, ptr %4, align 4
  %9 = sext i32 %8 to i64
  %10 = getelementptr inbounds ptr, ptr %7, i64 %9
  %11 = load ptr, ptr %10, align 8
  ret ptr %11
}

; Function Attrs: nounwind uwtable
define internal ptr @Abc_NtkPi(ptr noundef %0, i32 noundef %1) #0 {
  %3 = alloca ptr, align 8
  %4 = alloca i32, align 4
  store ptr %0, ptr %3, align 8
  store i32 %1, ptr %4, align 4
  %5 = load ptr, ptr %3, align 8
  %6 = getelementptr inbounds %struct.Abc_Ntk_t_, ptr %5, i32 0, i32 6
  %7 = load ptr, ptr %6, align 8
  %8 = load i32, ptr %4, align 4
  %9 = call ptr @Vec_PtrEntry(ptr noundef %7, i32 noundef %8)
  ret ptr %9
}

; Function Attrs: nounwind uwtable
define internal ptr @Abc_NtkCreateNode(ptr noundef %0) #0 {
  %2 = alloca ptr, align 8
  store ptr %0, ptr %2, align 8
  %3 = load ptr, ptr %2, align 8
  %4 = call ptr @Abc_NtkCreateObj(ptr noundef %3, i32 noundef 7)
  ret ptr %4
}

; Function Attrs: nounwind uwtable
define ptr @Io_ReadDsd_rec(ptr noundef %0, ptr noundef %1, ptr noundef %2) #0 {
  %4 = alloca ptr, align 8
  %5 = alloca ptr, align 8
  %6 = alloca ptr, align 8
  %7 = alloca ptr, align 8
  %8 = alloca ptr, align 8
  %9 = alloca ptr, align 8
  %10 = alloca ptr, align 8
  %11 = alloca [32 x ptr], align 16
  %12 = alloca i32, align 4
  %13 = alloca i32, align 4
  %14 = alloca i32, align 4
  store ptr %0, ptr %5, align 8
  store ptr %1, ptr %6, align 8
  store ptr %2, ptr %7, align 8
  %15 = load ptr, ptr %6, align 8
  %16 = load i8, ptr %15, align 1
  %17 = sext i8 %16 to i32
  %18 = icmp eq i32 %17, 33
  br i1 %18, label %19, label %27

19:                                               ; preds = %3
  %20 = load ptr, ptr %5, align 8
  %21 = load ptr, ptr %6, align 8
  %22 = getelementptr inbounds i8, ptr %21, i64 1
  %23 = call ptr @Io_ReadDsd_rec(ptr noundef %20, ptr noundef %22, ptr noundef null)
  store ptr %23, ptr %8, align 8
  %24 = load ptr, ptr %5, align 8
  %25 = load ptr, ptr %8, align 8
  %26 = call ptr @Abc_NtkCreateNodeInv(ptr noundef %24, ptr noundef %25)
  store ptr %26, ptr %4, align 8
  br label %197

27:                                               ; preds = %3
  %28 = load ptr, ptr %6, align 8
  %29 = load i8, ptr %28, align 1
  %30 = sext i8 %29 to i32
  %31 = icmp eq i32 %30, 40
  br i1 %31, label %32, label %128

32:                                               ; preds = %27
  %33 = load ptr, ptr %6, align 8
  %34 = load ptr, ptr %6, align 8
  %35 = call i64 @strlen(ptr noundef %34) #5
  %36 = sub i64 %35, 1
  %37 = getelementptr inbounds i8, ptr %33, i64 %36
  store i8 0, ptr %37, align 1
  %38 = load ptr, ptr %6, align 8
  %39 = getelementptr inbounds i8, ptr %38, i64 1
  %40 = getelementptr inbounds [32 x ptr], ptr %11, i64 0, i64 0
  %41 = call i32 @Io_ReadDsdStrSplit(ptr noundef %39, ptr noundef %40, ptr noundef %14)
  store i32 %41, ptr %13, align 4
  %42 = load i32, ptr %13, align 4
  %43 = icmp eq i32 %42, 0
  br i1 %43, label %44, label %46

44:                                               ; preds = %32
  %45 = load ptr, ptr %5, align 8
  call void @Abc_NtkDelete(ptr noundef %45)
  store ptr null, ptr %4, align 8
  br label %197

46:                                               ; preds = %32
  %47 = load ptr, ptr %5, align 8
  %48 = call ptr @Abc_NtkCreateNode(ptr noundef %47)
  store ptr %48, ptr %8, align 8
  %49 = load ptr, ptr %7, align 8
  %50 = icmp ne ptr %49, null
  br i1 %50, label %51, label %73

51:                                               ; preds = %46
  store i32 0, ptr %12, align 4
  br label %52

52:                                               ; preds = %69, %51
  %53 = load i32, ptr %12, align 4
  %54 = load i32, ptr %13, align 4
  %55 = icmp slt i32 %53, %54
  br i1 %55, label %56, label %72

56:                                               ; preds = %52
  %57 = load ptr, ptr %5, align 8
  %58 = load i32, ptr %12, align 4
  %59 = sext i32 %58 to i64
  %60 = getelementptr inbounds [32 x ptr], ptr %11, i64 0, i64 %59
  %61 = load ptr, ptr %60, align 8
  %62 = call ptr @Io_ReadDsd_rec(ptr noundef %57, ptr noundef %61, ptr noundef null)
  store ptr %62, ptr %9, align 8
  %63 = load ptr, ptr %9, align 8
  %64 = icmp eq ptr %63, null
  br i1 %64, label %65, label %66

65:                                               ; preds = %56
  store ptr null, ptr %4, align 8
  br label %197

66:                                               ; preds = %56
  %67 = load ptr, ptr %8, align 8
  %68 = load ptr, ptr %9, align 8
  call void @Abc_ObjAddFanin(ptr noundef %67, ptr noundef %68)
  br label %69

69:                                               ; preds = %66
  %70 = load i32, ptr %12, align 4
  %71 = add nsw i32 %70, 1
  store i32 %71, ptr %12, align 4
  br label %52, !llvm.loop !7

72:                                               ; preds = %52
  br label %95

73:                                               ; preds = %46
  store i32 0, ptr %12, align 4
  br label %74

74:                                               ; preds = %91, %73
  %75 = load i32, ptr %12, align 4
  %76 = load i32, ptr %13, align 4
  %77 = icmp slt i32 %75, %76
  br i1 %77, label %78, label %94

78:                                               ; preds = %74
  %79 = load ptr, ptr %5, align 8
  %80 = load i32, ptr %12, align 4
  %81 = sext i32 %80 to i64
  %82 = getelementptr inbounds [32 x ptr], ptr %11, i64 0, i64 %81
  %83 = load ptr, ptr %82, align 8
  %84 = call ptr @Io_ReadDsd_rec(ptr noundef %79, ptr noundef %83, ptr noundef null)
  store ptr %84, ptr %9, align 8
  %85 = load ptr, ptr %9, align 8
  %86 = icmp eq ptr %85, null
  br i1 %86, label %87, label %88

87:                                               ; preds = %78
  store ptr null, ptr %4, align 8
  br label %197

88:                                               ; preds = %78
  %89 = load ptr, ptr %8, align 8
  %90 = load ptr, ptr %9, align 8
  call void @Abc_ObjAddFanin(ptr noundef %89, ptr noundef %90)
  br label %91

91:                                               ; preds = %88
  %92 = load i32, ptr %12, align 4
  %93 = add nsw i32 %92, 1
  store i32 %93, ptr %12, align 4
  br label %74, !llvm.loop !8

94:                                               ; preds = %74
  br label %95

95:                                               ; preds = %94, %72
  %96 = load ptr, ptr %7, align 8
  %97 = icmp ne ptr %96, null
  br i1 %97, label %98, label %106

98:                                               ; preds = %95
  %99 = load ptr, ptr %5, align 8
  %100 = getelementptr inbounds %struct.Abc_Ntk_t_, ptr %99, i32 0, i32 30
  %101 = load ptr, ptr %100, align 8
  %102 = load ptr, ptr %7, align 8
  %103 = call ptr @Abc_SopRegister(ptr noundef %101, ptr noundef %102)
  %104 = load ptr, ptr %8, align 8
  %105 = getelementptr inbounds %struct.Abc_Obj_t_, ptr %104, i32 0, i32 6
  store ptr %103, ptr %105, align 8
  br label %126

106:                                              ; preds = %95
  %107 = load i32, ptr %14, align 4
  %108 = icmp ne i32 %107, 0
  br i1 %108, label %109, label %117

109:                                              ; preds = %106
  %110 = load ptr, ptr %5, align 8
  %111 = getelementptr inbounds %struct.Abc_Ntk_t_, ptr %110, i32 0, i32 30
  %112 = load ptr, ptr %111, align 8
  %113 = load i32, ptr %13, align 4
  %114 = call ptr @Abc_SopCreateXorSpecial(ptr noundef %112, i32 noundef %113)
  %115 = load ptr, ptr %8, align 8
  %116 = getelementptr inbounds %struct.Abc_Obj_t_, ptr %115, i32 0, i32 6
  store ptr %114, ptr %116, align 8
  br label %125

117:                                              ; preds = %106
  %118 = load ptr, ptr %5, align 8
  %119 = getelementptr inbounds %struct.Abc_Ntk_t_, ptr %118, i32 0, i32 30
  %120 = load ptr, ptr %119, align 8
  %121 = load i32, ptr %13, align 4
  %122 = call ptr @Abc_SopCreateAnd(ptr noundef %120, i32 noundef %121, ptr noundef null)
  %123 = load ptr, ptr %8, align 8
  %124 = getelementptr inbounds %struct.Abc_Obj_t_, ptr %123, i32 0, i32 6
  store ptr %122, ptr %124, align 8
  br label %125

125:                                              ; preds = %117, %109
  br label %126

126:                                              ; preds = %125, %98
  %127 = load ptr, ptr %8, align 8
  store ptr %127, ptr %4, align 8
  br label %197

128:                                              ; preds = %27
  %129 = load ptr, ptr %6, align 8
  %130 = load i8, ptr %129, align 1
  %131 = sext i8 %130 to i32
  %132 = icmp sge i32 %131, 97
  br i1 %132, label %133, label %145

133:                                              ; preds = %128
  %134 = load ptr, ptr %6, align 8
  %135 = load i8, ptr %134, align 1
  %136 = sext i8 %135 to i32
  %137 = icmp sle i32 %136, 122
  br i1 %137, label %138, label %145

138:                                              ; preds = %133
  %139 = load ptr, ptr %5, align 8
  %140 = load ptr, ptr %6, align 8
  %141 = load i8, ptr %140, align 1
  %142 = sext i8 %141 to i32
  %143 = sub nsw i32 %142, 97
  %144 = call ptr @Abc_NtkPi(ptr noundef %139, i32 noundef %143)
  store ptr %144, ptr %4, align 8
  br label %197

145:                                              ; preds = %133, %128
  %146 = load ptr, ptr %6, align 8
  store ptr %146, ptr %10, align 8
  br label %147

147:                                              ; preds = %171, %145
  %148 = load ptr, ptr %10, align 8
  %149 = load i8, ptr %148, align 1
  %150 = sext i8 %149 to i32
  %151 = icmp sge i32 %150, 48
  br i1 %151, label %152, label %157

152:                                              ; preds = %147
  %153 = load ptr, ptr %10, align 8
  %154 = load i8, ptr %153, align 1
  %155 = sext i8 %154 to i32
  %156 = icmp sle i32 %155, 57
  br i1 %156, label %169, label %157

157:                                              ; preds = %152, %147
  %158 = load ptr, ptr %10, align 8
  %159 = load i8, ptr %158, align 1
  %160 = sext i8 %159 to i32
  %161 = icmp sge i32 %160, 65
  br i1 %161, label %162, label %167

162:                                              ; preds = %157
  %163 = load ptr, ptr %10, align 8
  %164 = load i8, ptr %163, align 1
  %165 = sext i8 %164 to i32
  %166 = icmp sle i32 %165, 70
  br label %167

167:                                              ; preds = %162, %157
  %168 = phi i1 [ false, %157 ], [ %166, %162 ]
  br label %169

169:                                              ; preds = %167, %152
  %170 = phi i1 [ true, %152 ], [ %168, %167 ]
  br i1 %170, label %171, label %174

171:                                              ; preds = %169
  %172 = load ptr, ptr %10, align 8
  %173 = getelementptr inbounds i8, ptr %172, i32 1
  store ptr %173, ptr %10, align 8
  br label %147, !llvm.loop !9

174:                                              ; preds = %169
  %175 = load ptr, ptr %10, align 8
  %176 = load i8, ptr %175, align 1
  %177 = sext i8 %176 to i32
  %178 = icmp ne i32 %177, 40
  br i1 %178, label %179, label %181

179:                                              ; preds = %174
  %180 = call i32 (ptr, ...) @printf(ptr noundef @.str.4)
  store ptr null, ptr %4, align 8
  br label %197

181:                                              ; preds = %174
  %182 = load ptr, ptr %10, align 8
  store i8 0, ptr %182, align 1
  %183 = load ptr, ptr %6, align 8
  %184 = call ptr @Abc_SopFromTruthHex(ptr noundef %183)
  store ptr %184, ptr %7, align 8
  %185 = load ptr, ptr %10, align 8
  store i8 40, ptr %185, align 1
  %186 = load ptr, ptr %5, align 8
  %187 = load ptr, ptr %10, align 8
  %188 = load ptr, ptr %7, align 8
  %189 = call ptr @Io_ReadDsd_rec(ptr noundef %186, ptr noundef %187, ptr noundef %188)
  store ptr %189, ptr %8, align 8
  %190 = load ptr, ptr %7, align 8
  %191 = icmp ne ptr %190, null
  br i1 %191, label %192, label %194

192:                                              ; preds = %181
  %193 = load ptr, ptr %7, align 8
  call void @free(ptr noundef %193) #6
  store ptr null, ptr %7, align 8
  br label %195

194:                                              ; preds = %181
  br label %195

195:                                              ; preds = %194, %192
  %196 = load ptr, ptr %8, align 8
  store ptr %196, ptr %4, align 8
  br label %197

197:                                              ; preds = %195, %179, %138, %126, %87, %65, %44, %19
  %198 = load ptr, ptr %4, align 8
  ret ptr %198
}