; Function Attrs: nounwind uwtable
define ptr @Io_ReadDsd_rec(ptr noundef %0, ptr noundef %1, ptr noundef %2) local_unnamed_addr #2 {
  %4 = alloca [32 x ptr], align 16
  %5 = alloca i32, align 4
  %6 = load i8, ptr %1, align 1
  switch i8 %6, label %44 [
    i8 33, label %7
    i8 40, label %11
  ]

common.ret110:                                    ; preds = %61, %58, %.loopexit.thread99, %42, %40, %57, %48, %18, %.lr.ph84, %.lr.ph, %7
  %common.ret110.op = phi ptr [ %10, %7 ], [ null, %18 ], [ %53, %48 ], [ null, %57 ], [ %20, %40 ], [ %20, %42 ], [ %20, %.loopexit.thread99 ], [ %60, %58 ], [ %60, %61 ], [ null, %.lr.ph84 ], [ null, %.lr.ph ]
  ret ptr %common.ret110.op

7:                                                ; preds = %3
  %8 = getelementptr inbounds nuw i8, ptr %1, i64 1
  %9 = tail call ptr @Io_ReadDsd_rec(ptr noundef %0, ptr noundef nonnull %8, ptr noundef null)
  %10 = tail call ptr @Abc_NtkCreateNodeInv(ptr noundef %0, ptr noundef %9) #9
  br label %common.ret110

11:                                               ; preds = %3
  %12 = tail call i64 @strlen(ptr noundef nonnull dereferenceable(1) %1) #10
  %13 = getelementptr i8, ptr %1, i64 %12
  %14 = getelementptr i8, ptr %13, i64 -1
  store i8 0, ptr %14, align 1
  %15 = getelementptr inbounds nuw i8, ptr %1, i64 1
  %16 = call i32 @Io_ReadDsdStrSplit(ptr noundef nonnull %15, ptr noundef nonnull %4, ptr noundef nonnull %5)
  %17 = icmp eq i32 %16, 0
  br i1 %17, label %18, label %19

18:                                               ; preds = %11
  tail call void @Abc_NtkDelete(ptr noundef %0) #9
  br label %common.ret110

19:                                               ; preds = %11
  %20 = tail call ptr @Abc_NtkCreateObj(ptr noundef %0, i32 noundef 7) #9
  %.not73 = icmp eq ptr %2, null
  %21 = icmp sgt i32 %16, 0
  br i1 %.not73, label %.preheader78, label %.preheader79

.preheader79:                                     ; preds = %19
  br i1 %21, label %.lr.ph.preheader, label %.loopexit.thread99

.lr.ph.preheader:                                 ; preds = %.preheader79
  %wide.trip.count = zext nneg i32 %16 to i64
  br label %.lr.ph

.preheader78:                                     ; preds = %19
  br i1 %21, label %.lr.ph84.preheader, label %.loopexit.thread

.lr.ph84.preheader:                               ; preds = %.preheader78
  %wide.trip.count97 = zext nneg i32 %16 to i64
  br label %.lr.ph84

.lr.ph:                                           ; preds = %.lr.ph.preheader, %26
  %indvars.iv = phi i64 [ 0, %.lr.ph.preheader ], [ %indvars.iv.next, %26 ]
  %22 = getelementptr inbounds nuw [32 x ptr], ptr %4, i64 0, i64 %indvars.iv
  %23 = load ptr, ptr %22, align 8
  %24 = tail call ptr @Io_ReadDsd_rec(ptr noundef %0, ptr noundef %23, ptr noundef null)
  %25 = icmp eq ptr %24, null
  br i1 %25, label %common.ret110, label %26

26:                                               ; preds = %.lr.ph
  tail call void @Abc_ObjAddFanin(ptr noundef %20, ptr noundef nonnull %24) #9
  %indvars.iv.next = add nuw nsw i64 %indvars.iv, 1
  %exitcond.not = icmp eq i64 %indvars.iv.next, %wide.trip.count
  br i1 %exitcond.not, label %.loopexit, label %.lr.ph, !llvm.loop !7

.lr.ph84:                                         ; preds = %.lr.ph84.preheader, %31
  %indvars.iv94 = phi i64 [ 0, %.lr.ph84.preheader ], [ %indvars.iv.next95, %31 ]
  %27 = getelementptr inbounds nuw [32 x ptr], ptr %4, i64 0, i64 %indvars.iv94
  %28 = load ptr, ptr %27, align 8
  %29 = tail call ptr @Io_ReadDsd_rec(ptr noundef %0, ptr noundef %28, ptr noundef null)
  %30 = icmp eq ptr %29, null
  br i1 %30, label %common.ret110, label %31

31:                                               ; preds = %.lr.ph84
  tail call void @Abc_ObjAddFanin(ptr noundef %20, ptr noundef nonnull %29) #9
  %indvars.iv.next95 = add nuw nsw i64 %indvars.iv94, 1
  %exitcond98.not = icmp eq i64 %indvars.iv.next95, %wide.trip.count97
  br i1 %exitcond98.not, label %.loopexit, label %.lr.ph84, !llvm.loop !8

.loopexit:                                        ; preds = %26, %31
  br i1 %.not73, label %.loopexit.thread, label %.loopexit.thread99

.loopexit.thread99:                               ; preds = %.preheader79, %.loopexit
  %32 = getelementptr inbounds nuw i8, ptr %0, i64 256
  %33 = load ptr, ptr %32, align 8
  %34 = tail call ptr @Abc_SopRegister(ptr noundef %33, ptr noundef nonnull %2) #9
  %35 = getelementptr inbounds nuw i8, ptr %20, i64 56
  store ptr %34, ptr %35, align 8
  br label %common.ret110

.loopexit.thread:                                 ; preds = %.preheader78, %.loopexit
  %36 = load i32, ptr %5, align 4
  %.not74 = icmp eq i32 %36, 0
  %37 = getelementptr inbounds nuw i8, ptr %0, i64 256
  %38 = load ptr, ptr %37, align 8
  %39 = getelementptr inbounds nuw i8, ptr %20, i64 56
  br i1 %.not74, label %42, label %40

40:                                               ; preds = %.loopexit.thread
  %41 = tail call ptr @Abc_SopCreateXorSpecial(ptr noundef %38, i32 noundef %16) #9
  store ptr %41, ptr %39, align 8
  br label %common.ret110

42:                                               ; preds = %.loopexit.thread
  %43 = tail call ptr @Abc_SopCreateAnd(ptr noundef %38, i32 noundef %16, ptr noundef null) #9
  store ptr %43, ptr %39, align 8
  br label %common.ret110

44:                                               ; preds = %3
  %45 = add i8 %6, -97
  %or.cond = icmp ult i8 %45, 26
  br i1 %or.cond, label %48, label %.preheader

.preheader:                                       ; preds = %44
  %46 = add i8 %6, -48
  %or.cond7585 = icmp ult i8 %46, 10
  %47 = add i8 %6, -65
  %or.cond7686 = icmp ult i8 %47, 6
  %or.cond7787 = or i1 %or.cond7585, %or.cond7686
  br i1 %or.cond7787, label %.critedge, label %.critedge2

48:                                               ; preds = %44
  %49 = getelementptr i8, ptr %0, i64 40
  %.val = load ptr, ptr %49, align 8
  %50 = getelementptr i8, ptr %.val, i64 8
  %.val.val = load ptr, ptr %50, align 8
  %51 = zext nneg i8 %45 to i64
  %52 = getelementptr inbounds nuw ptr, ptr %.val.val, i64 %51
  %53 = load ptr, ptr %52, align 8
  br label %common.ret110

.critedge:                                        ; preds = %.preheader, %.critedge
  %.06388 = phi ptr [ %54, %.critedge ], [ %1, %.preheader ]
  %54 = getelementptr inbounds nuw i8, ptr %.06388, i64 1
  %.pr = load i8, ptr %54, align 1
  %55 = add i8 %.pr, -48
  %or.cond75 = icmp ult i8 %55, 10
  %56 = add i8 %.pr, -65
  %or.cond76 = icmp ult i8 %56, 6
  %or.cond77 = or i1 %or.cond75, %or.cond76
  br i1 %or.cond77, label %.critedge, label %.critedge2, !llvm.loop !9

.critedge2:                                       ; preds = %.critedge, %.preheader
  %.lcssa = phi i8 [ %6, %.preheader ], [ %.pr, %.critedge ]
  %.063.lcssa = phi ptr [ %1, %.preheader ], [ %54, %.critedge ]
  %.not = icmp eq i8 %.lcssa, 40
  br i1 %.not, label %58, label %57

57:                                               ; preds = %.critedge2
  %puts = tail call i32 @puts(ptr nonnull dereferenceable(1) @str.4)
  br label %common.ret110

58:                                               ; preds = %.critedge2
  store i8 0, ptr %.063.lcssa, align 1
  %59 = tail call ptr @Abc_SopFromTruthHex(ptr noundef nonnull %1) #9
  store i8 40, ptr %.063.lcssa, align 1
  %60 = tail call ptr @Io_ReadDsd_rec(ptr noundef %0, ptr noundef nonnull %.063.lcssa, ptr noundef %59)
  %.not72 = icmp eq ptr %59, null
  br i1 %.not72, label %common.ret110, label %61

61:                                               ; preds = %58
  tail call void @free(ptr noundef nonnull %59) #9
  br label %common.ret110
}